(dp0
Vengine
p1
Vxelatex
p2
sVpackages
p3
c__builtin__
set
p4
((lp5
Vfontenc
p6
atp7
Rp8
sVfiles_with_guttermarks
p9
g4
((lp10
V/Users/Kablu/Google Drive/CV/Real CV/Tex Real CV/./EliiseSeling.tex
p11
aS'EliiseSeling.tex'
p12
atp13
Rp14
sVsynctex
p15
I01
s.